; Function Attrs: nounwind sspstrong uwtable
define internal range(i64 1, -7) i64 @thgroup_add(i64 noundef returned %0, i64 noundef %1) #0 {
  %3 = tail call ptr @rb_check_typeddata(i64 noundef %1, ptr noundef nonnull @ruby_threadptr_data_type) #17
  %4 = icmp eq i64 %0, 0
  %5 = and i64 %0, 7
  %6 = icmp ne i64 %5, 0
  %7 = or i1 %4, %6
  br i1 %7, label %RB_OBJ_FROZEN.exit.thread, label %RB_FL_ABLE.exit.i

RB_FL_ABLE.exit.i:                                ; preds = %2
  %8 = inttoptr i64 %0 to ptr
  %9 = load i64, ptr %8, align 8, !tbaa !42
  %10 = and i64 %9, 31
  %.not.i = icmp eq i64 %10, 27
  %11 = and i64 %9, 2048
  %12 = icmp ne i64 %11, 0
  %or.cond = or i1 %.not.i, %12
  br i1 %or.cond, label %RB_OBJ_FROZEN.exit.thread, label %14

RB_OBJ_FROZEN.exit.thread:                        ; preds = %2, %RB_FL_ABLE.exit.i
  %13 = load i64, ptr @rb_eThreadError, align 8, !tbaa !145
  tail call void (i64, ptr, ...) @rb_raise(i64 noundef %13, ptr noundef nonnull @.str.250) #38
  unreachable

14:                                               ; preds = %RB_FL_ABLE.exit.i
  %15 = tail call ptr @rb_check_typeddata(i64 noundef %0, ptr noundef nonnull @thgroup_data_type) #17
  %16 = load i32, ptr %15, align 4, !tbaa !367
  %.not = icmp eq i32 %16, 0
  br i1 %.not, label %19, label %17

17:                                               ; preds = %14
  %18 = load i64, ptr @rb_eThreadError, align 8, !tbaa !145
  tail call void (i64, ptr, ...) @rb_raise(i64 noundef %18, ptr noundef nonnull @.str.251) #38
  unreachable

19:                                               ; preds = %14
  %20 = getelementptr inbounds nuw i8, ptr %3, i64 256
  %21 = load i64, ptr %20, align 8, !tbaa !229
  %22 = icmp eq i64 %21, 0
  %23 = and i64 %21, 7
  %24 = icmp ne i64 %23, 0
  %25 = or i1 %22, %24
  br i1 %25, label %RB_OBJ_FROZEN.exit13.thread, label %RB_FL_ABLE.exit.i10

RB_FL_ABLE.exit.i10:                              ; preds = %19
  %26 = inttoptr i64 %21 to ptr
  %27 = load i64, ptr %26, align 8, !tbaa !42
  %28 = and i64 %27, 31
  %.not.i11 = icmp eq i64 %28, 27
  %29 = and i64 %27, 2048
  %30 = icmp ne i64 %29, 0
  %or.cond18 = or i1 %.not.i11, %30
  br i1 %or.cond18, label %RB_OBJ_FROZEN.exit13.thread, label %32

RB_OBJ_FROZEN.exit13.thread:                      ; preds = %19, %RB_FL_ABLE.exit.i10
  %31 = load i64, ptr @rb_eThreadError, align 8, !tbaa !145
  tail call void (i64, ptr, ...) @rb_raise(i64 noundef %31, ptr noundef nonnull @.str.252) #38
  unreachable

32:                                               ; preds = %RB_FL_ABLE.exit.i10
  %33 = tail call ptr @rb_check_typeddata(i64 noundef %21, ptr noundef nonnull @thgroup_data_type) #17
  %34 = load i32, ptr %33, align 4, !tbaa !367
  %.not9 = icmp eq i32 %34, 0
  br i1 %.not9, label %37, label %35

35:                                               ; preds = %32
  %36 = load i64, ptr @rb_eThreadError, align 8, !tbaa !145
  tail call void (i64, ptr, ...) @rb_raise(i64 noundef %36, ptr noundef nonnull @.str.253) #38
  unreachable

37:                                               ; preds = %32
  store i64 %0, ptr %20, align 8, !tbaa !229
  ret i64 %0
}